; ModuleID = '4/429.c'
source_filename = "4/429.c"
target datalayout = "e-m:e-p270:32:32-p271:32:32-p272:64:64-i64:64-f80:128-n8:16:32:64-S128"
target triple = "x86_64-pc-linux-gnu"

@.str = private unnamed_addr constant [6 x i8] c"%d %d\00", align 1
@.str.1 = private unnamed_addr constant [3 x i8] c"%d\00", align 1
@.str.2 = private unnamed_addr constant [4 x i8] c"%d\0A\00", align 1

; Function Attrs: noinline nounwind uwtable
define dso_local i32 @main() #0 {
  %1 = alloca i32, align 4
  %2 = alloca [100 x [100 x i32]], align 16
  %3 = alloca i32, align 4
  %4 = alloca i32, align 4
  %5 = alloca i32, align 4
  %6 = alloca i32, align 4
  store i32 0, i32* %1, align 4
  %7 = call i32 (i8*, ...) @__isoc99_scanf(i8* getelementptr inbounds ([6 x i8], [6 x i8]* @.str, i64 0, i64 0), i32* %3, i32* %4)
  store i32 0, i32* %5, align 4
  br label %8

8:                                                ; preds = %29, %0
  %9 = load i32, i32* %5, align 4
  %10 = load i32, i32* %3, align 4
  %11 = icmp slt i32 %9, %10
  br i1 %11, label %12, label %32

12:                                               ; preds = %8
  store i32 0, i32* %6, align 4
  br label %13

13:                                               ; preds = %25, %12
  %14 = load i32, i32* %6, align 4
  %15 = load i32, i32* %4, align 4
  %16 = icmp slt i32 %14, %15
  br i1 %16, label %17, label %28

17:                                               ; preds = %13
  %18 = load i32, i32* %5, align 4
  %19 = sext i32 %18 to i64
  %20 = getelementptr inbounds [100 x [100 x i32]], [100 x [100 x i32]]* %2, i64 0, i64 %19
  %21 = load i32, i32* %6, align 4
  %22 = sext i32 %21 to i64
  %23 = getelementptr inbounds [100 x i32], [100 x i32]* %20, i64 0, i64 %22
  %24 = call i32 (i8*, ...) @__isoc99_scanf(i8* getelementptr inbounds ([3 x i8], [3 x i8]* @.str.1, i64 0, i64 0), i32* %23)
  br label %25

25:                                               ; preds = %17
  %26 = load i32, i32* %6, align 4
  %27 = add nsw i32 %26, 1
  store i32 %27, i32* %6, align 4
  br label %13

28:                                               ; preds = %13
  br label %29

29:                                               ; preds = %28
  %30 = load i32, i32* %5, align 4
  %31 = add nsw i32 %30, 1
  store i32 %31, i32* %5, align 4
  br label %8

32:                                               ; preds = %8
  store i32 0, i32* %5, align 4
  store i32 0, i32* %6, align 4
  br label %33

33:                                               ; preds = %105, %32
  %34 = load i32, i32* %5, align 4
  %35 = sext i32 %34 to i64
  %36 = getelementptr inbounds [100 x [100 x i32]], [100 x [100 x i32]]* %2, i64 0, i64 %35
  %37 = load i32, i32* %6, align 4
  %38 = sext i32 %37 to i64
  %39 = getelementptr inbounds [100 x i32], [100 x i32]* %36, i64 0, i64 %38
  %40 = load i32, i32* %39, align 4
  %41 = call i32 (i8*, ...) @printf(i8* getelementptr inbounds ([4 x i8], [4 x i8]* @.str.2, i64 0, i64 0), i32 %40)
  %42 = load i32, i32* %5, align 4
  %43 = load i32, i32* %3, align 4
  %44 = sub nsw i32 %43, 1
  %45 = icmp eq i32 %42, %44
  br i1 %45, label %46, label %52

46:                                               ; preds = %33
  %47 = load i32, i32* %6, align 4
  %48 = load i32, i32* %4, align 4
  %49 = sub nsw i32 %48, 1
  %50 = icmp eq i32 %47, %49
  br i1 %50, label %51, label %52

51:                                               ; preds = %46
  br label %106

52:                                               ; preds = %46, %33
  %53 = load i32, i32* %6, align 4
  %54 = icmp eq i32 %53, 0
  br i1 %54, label %55, label %71

55:                                               ; preds = %52
  %56 = load i32, i32* %5, align 4
  %57 = load i32, i32* %4, align 4
  %58 = sub nsw i32 %57, 1
  %59 = icmp sge i32 %56, %58
  br i1 %59, label %60, label %67

60:                                               ; preds = %55
  %61 = load i32, i32* %5, align 4
  %62 = load i32, i32* %4, align 4
  %63 = sub nsw i32 %61, %62
  %64 = add nsw i32 %63, 2
  store i32 %64, i32* %5, align 4
  %65 = load i32, i32* %4, align 4
  %66 = sub nsw i32 %65, 1
  store i32 %66, i32* %6, align 4
  br label %70

67:                                               ; preds = %55
  %68 = load i32, i32* %5, align 4
  %69 = add nsw i32 %68, 1
  store i32 %69, i32* %6, align 4
  store i32 0, i32* %5, align 4
  br label %70

70:                                               ; preds = %67, %60
  br label %104

71:                                               ; preds = %52
  %72 = load i32, i32* %5, align 4
  %73 = load i32, i32* %3, align 4
  %74 = sub nsw i32 %73, 1
  %75 = icmp eq i32 %72, %74
  br i1 %75, label %76, label %98

76:                                               ; preds = %71
  %77 = load i32, i32* %5, align 4
  %78 = load i32, i32* %6, align 4
  %79 = add nsw i32 %77, %78
  %80 = load i32, i32* %4, align 4
  %81 = sub nsw i32 %80, 1
  %82 = icmp sge i32 %79, %81
  br i1 %82, label %83, label %92

83:                                               ; preds = %76
  %84 = load i32, i32* %5, align 4
  %85 = load i32, i32* %6, align 4
  %86 = add nsw i32 %84, %85
  %87 = load i32, i32* %4, align 4
  %88 = sub nsw i32 %86, %87
  %89 = add nsw i32 %88, 2
  store i32 %89, i32* %5, align 4
  %90 = load i32, i32* %4, align 4
  %91 = sub nsw i32 %90, 1
  store i32 %91, i32* %6, align 4
  br label %97

92:                                               ; preds = %76
  %93 = load i32, i32* %5, align 4
  %94 = load i32, i32* %6, align 4
  %95 = add nsw i32 %93, %94
  %96 = add nsw i32 %95, 1
  store i32 %96, i32* %6, align 4
  store i32 0, i32* %5, align 4
  br label %97

97:                                               ; preds = %92, %83
  br label %103

98:                                               ; preds = %71
  %99 = load i32, i32* %5, align 4
  %100 = add nsw i32 %99, 1
  store i32 %100, i32* %5, align 4
  %101 = load i32, i32* %6, align 4
  %102 = add nsw i32 %101, -1
  store i32 %102, i32* %6, align 4
  br label %103

103:                                              ; preds = %98, %97
  br label %104

104:                                              ; preds = %103, %70
  br label %105

105:                                              ; preds = %104
  br label %33

106:                                              ; preds = %51
  ret i32 0
}

declare dso_local i32 @__isoc99_scanf(i8*, ...) #1

declare dso_local i32 @printf(i8*, ...) #1


!llvm.module.flags = !{!0}
!llvm.ident = !{!1}

!0 = !{i32 1, !"wchar_size", i32 4}
!1 = !{!"clang version 10.0.0-4ubuntu1 "}
