; ModuleID = 'source-C-CXX/3/429.c'
source_filename = "source-C-CXX/3/429.c"
target datalayout = "e-m:e-p270:32:32-p271:32:32-p272:64:64-i64:64-f80:128-n8:16:32:64-S128"
target triple = "x86_64-pc-linux-gnu"

@.str = private unnamed_addr constant [6 x i8] c"%d %d\00", align 1
@.str.1 = private unnamed_addr constant [3 x i8] c"%d\00", align 1
@.str.2 = private unnamed_addr constant [4 x i8] c"%d\0A\00", align 1

; Function Attrs: nofree nounwind sspstrong uwtable
define dso_local i32 @main() local_unnamed_addr #0 {
  %1 = alloca [100 x [100 x i32]], align 16
  %2 = alloca i32, align 4
  %3 = alloca i32, align 4
  %4 = bitcast [100 x [100 x i32]]* %1 to i8*
  call void @llvm.lifetime.start.p0i8(i64 40000, i8* nonnull %4) #3
  %5 = bitcast i32* %2 to i8*
  call void @llvm.lifetime.start.p0i8(i64 4, i8* nonnull %5) #3
  %6 = bitcast i32* %3 to i8*
  call void @llvm.lifetime.start.p0i8(i64 4, i8* nonnull %6) #3
  %7 = call i32 (i8*, ...) @__isoc99_scanf(i8* getelementptr inbounds ([6 x i8], [6 x i8]* @.str, i64 0, i64 0), i32* nonnull %2, i32* nonnull %3)
  %8 = load i32, i32* %2, align 4, !tbaa !5
  %9 = icmp sgt i32 %8, 0
  %10 = load i32, i32* %3, align 4
  %11 = icmp sgt i32 %10, 0
  %12 = select i1 %9, i1 %11, i1 false
  br i1 %12, label %13, label %34

13:                                               ; preds = %0, %28
  %14 = phi i32 [ %29, %28 ], [ %8, %0 ]
  %15 = phi i32 [ %30, %28 ], [ %10, %0 ]
  %16 = phi i64 [ %31, %28 ], [ 0, %0 ]
  %17 = icmp sgt i32 %15, 0
  br i1 %17, label %18, label %28

18:                                               ; preds = %13, %18
  %19 = phi i64 [ %22, %18 ], [ 0, %13 ]
  %20 = getelementptr inbounds [100 x [100 x i32]], [100 x [100 x i32]]* %1, i64 0, i64 %16, i64 %19
  %21 = call i32 (i8*, ...) @__isoc99_scanf(i8* getelementptr inbounds ([3 x i8], [3 x i8]* @.str.1, i64 0, i64 0), i32* nonnull %20)
  %22 = add nuw nsw i64 %19, 1
  %23 = load i32, i32* %3, align 4, !tbaa !5
  %24 = sext i32 %23 to i64
  %25 = icmp slt i64 %22, %24
  br i1 %25, label %18, label %26, !llvm.loop !9

26:                                               ; preds = %18
  %27 = load i32, i32* %2, align 4, !tbaa !5
  br label %28

28:                                               ; preds = %26, %13
  %29 = phi i32 [ %27, %26 ], [ %14, %13 ]
  %30 = phi i32 [ %23, %26 ], [ %15, %13 ]
  %31 = add nuw nsw i64 %16, 1
  %32 = sext i32 %29 to i64
  %33 = icmp slt i64 %31, %32
  br i1 %33, label %13, label %34, !llvm.loop !11

34:                                               ; preds = %28, %0
  br label %35

35:                                               ; preds = %66, %34
  %36 = phi i32 [ 0, %34 ], [ %67, %66 ]
  %37 = phi i32 [ 0, %34 ], [ %68, %66 ]
  %38 = sext i32 %36 to i64
  %39 = sext i32 %37 to i64
  %40 = getelementptr inbounds [100 x [100 x i32]], [100 x [100 x i32]]* %1, i64 0, i64 %38, i64 %39
  %41 = load i32, i32* %40, align 4, !tbaa !5
  %42 = call i32 (i8*, ...) @printf(i8* nonnull dereferenceable(1) getelementptr inbounds ([4 x i8], [4 x i8]* @.str.2, i64 0, i64 0), i32 %41)
  %43 = load i32, i32* %2, align 4, !tbaa !5
  %44 = add nsw i32 %43, -1
  %45 = icmp eq i32 %36, %44
  br i1 %45, label %46, label %52

46:                                               ; preds = %35
  %47 = load i32, i32* %3, align 4, !tbaa !5
  %48 = add nsw i32 %47, -1
  %49 = icmp eq i32 %37, %48
  br i1 %49, label %80, label %50

50:                                               ; preds = %46
  %51 = icmp eq i32 %37, 0
  br i1 %51, label %57, label %69

52:                                               ; preds = %35
  %53 = icmp eq i32 %37, 0
  br i1 %53, label %54, label %77

54:                                               ; preds = %52
  %55 = load i32, i32* %3, align 4, !tbaa !5
  %56 = add nsw i32 %55, -1
  br label %57

57:                                               ; preds = %54, %50
  %58 = phi i32 [ %56, %54 ], [ %48, %50 ]
  %59 = phi i32 [ %55, %54 ], [ %47, %50 ]
  %60 = icmp slt i32 %36, %58
  br i1 %60, label %64, label %61

61:                                               ; preds = %57
  %62 = add i32 %36, 2
  %63 = sub i32 %62, %59
  br label %66

64:                                               ; preds = %57
  %65 = add nsw i32 %36, 1
  br label %66

66:                                               ; preds = %64, %61, %72, %75, %77
  %67 = phi i32 [ %63, %61 ], [ 0, %64 ], [ %74, %72 ], [ 0, %75 ], [ %78, %77 ]
  %68 = phi i32 [ %58, %61 ], [ %65, %64 ], [ %48, %72 ], [ %76, %75 ], [ %79, %77 ]
  br label %35

69:                                               ; preds = %50
  %70 = add nsw i32 %37, %36
  %71 = icmp slt i32 %70, %48
  br i1 %71, label %75, label %72

72:                                               ; preds = %69
  %73 = add i32 %70, 2
  %74 = sub i32 %73, %47
  br label %66

75:                                               ; preds = %69
  %76 = add nsw i32 %70, 1
  br label %66

77:                                               ; preds = %52
  %78 = add nsw i32 %36, 1
  %79 = add nsw i32 %37, -1
  br label %66

80:                                               ; preds = %46
  call void @llvm.lifetime.end.p0i8(i64 4, i8* nonnull %6) #3
  call void @llvm.lifetime.end.p0i8(i64 4, i8* nonnull %5) #3
  call void @llvm.lifetime.end.p0i8(i64 40000, i8* nonnull %4) #3
  ret i32 0
}

; Function Attrs: argmemonly mustprogress nofree nosync nounwind willreturn
declare void @llvm.lifetime.start.p0i8(i64 immarg, i8* nocapture) #1

; Function Attrs: nofree nounwind
declare noundef i32 @__isoc99_scanf(i8* nocapture noundef readonly, ...) local_unnamed_addr #2

; Function Attrs: nofree nounwind
declare noundef i32 @printf(i8* nocapture noundef readonly, ...) local_unnamed_addr #2

; Function Attrs: argmemonly mustprogress nofree nosync nounwind willreturn
declare void @llvm.lifetime.end.p0i8(i64 immarg, i8* nocapture) #1


!llvm.module.flags = !{!0, !1, !2, !3}
!llvm.ident = !{!4}

!0 = !{i32 1, !"wchar_size", i32 4}
!1 = !{i32 7, !"PIC Level", i32 2}
!2 = !{i32 7, !"PIE Level", i32 2}
!3 = !{i32 7, !"uwtable", i32 1}
!4 = !{!"clang version 13.0.0"}
!5 = !{!6, !6, i64 0}
!6 = !{!"int", !7, i64 0}
!7 = !{!"omnipotent char", !8, i64 0}
!8 = !{!"Simple C/C++ TBAA"}
!9 = distinct !{!9, !10}
!10 = !{!"llvm.loop.mustprogress"}
!11 = distinct !{!11, !10, !12}
!12 = !{!"llvm.loop.unswitch.partial.disable"}
